; Function Attrs: mustprogress nofree nounwind willreturn memory(read, inaccessiblemem: none) uwtable
define internal noundef zeroext i1 @_ZNK4absl12log_internal12_GLOBAL__N_118MatchesOstreamImpl15MatchAndExplainESt17basic_string_viewIcSt11char_traitsIcEEPN7testing19MatchResultListenerE(ptr noundef nonnull readonly align 8 captures(none) dereferenceable(40) %0, i64 %1, ptr readonly captures(none) %2, ptr readnone captures(none) %3) unnamed_addr #15 align 2 personality ptr @__gxx_personality_v0 {
  %5 = getelementptr inbounds nuw i8, ptr %0, i64 8
  %6 = load ptr, ptr %5, align 8, !tbaa !33
  %7 = getelementptr inbounds nuw i8, ptr %0, i64 16
  %8 = load i64, ptr %7, align 8, !tbaa !30
  %9 = icmp eq i64 %1, %8
  br i1 %9, label %10, label %_ZSteqIcSt11char_traitsIcEEbSt17basic_string_viewIT_T0_ENSt15__type_identityIS5_E4typeE.exit

10:                                               ; preds = %4
  %11 = icmp eq i64 %1, 0
  br i1 %11, label %_ZNSt11char_traitsIcE7compareEPKcS2_m.exit.thread.i.i, label %_ZNSt11char_traitsIcE7compareEPKcS2_m.exit.i.i

_ZNSt11char_traitsIcE7compareEPKcS2_m.exit.i.i:   ; preds = %10
  %bcmp.i = tail call i32 @bcmp(ptr %2, ptr %6, i64 %1)
  %12 = icmp eq i32 %bcmp.i, 0
  br i1 %12, label %_ZNSt11char_traitsIcE7compareEPKcS2_m.exit.thread.i.i, label %_ZSteqIcSt11char_traitsIcEEbSt17basic_string_viewIT_T0_ENSt15__type_identityIS5_E4typeE.exit

_ZNSt11char_traitsIcE7compareEPKcS2_m.exit.thread.i.i: ; preds = %_ZNSt11char_traitsIcE7compareEPKcS2_m.exit.i.i, %10
  br label %_ZSteqIcSt11char_traitsIcEEbSt17basic_string_viewIT_T0_ENSt15__type_identityIS5_E4typeE.exit

_ZSteqIcSt11char_traitsIcEEbSt17basic_string_viewIT_T0_ENSt15__type_identityIS5_E4typeE.exit: ; preds = %4, %_ZNSt11char_traitsIcE7compareEPKcS2_m.exit.i.i, %_ZNSt11char_traitsIcE7compareEPKcS2_m.exit.thread.i.i
  %13 = phi i1 [ false, %4 ], [ true, %_ZNSt11char_traitsIcE7compareEPKcS2_m.exit.thread.i.i ], [ false, %_ZNSt11char_traitsIcE7compareEPKcS2_m.exit.i.i ]
  ret i1 %13
}